target datalayout = "e-m:e-p270:32:32-p271:32:32-p272:64:64-i64:64-i128:128-f80:128-n8:16:32:64-S128"
target triple = "x86_64-pc-linux-gnu"

%struct.AVProbeData = type { ptr, ptr, i32, ptr }
%struct.AVFormatContext = type { ptr, ptr, ptr, ptr, ptr, i32, i32, ptr, i32, ptr, i32, ptr, ptr, i64, i64, i64, i32, i32, i32, i64, i64, ptr, i32, i32, ptr, i32, i32, i32, i32, ptr, i64, i32, i32, %struct.AVIOInterruptCB, i32, i32, i32, i32, i64, i32, i32, i32, i32, i32, i32, i32, i32, i32, i32, i32, i32, i64, i32, i32, i32, i32, i32, ptr, ptr, ptr, ptr, i32, ptr, ptr, ptr, ptr, i32, ptr, ptr, i64, ptr, ptr, ptr, i64 }
%struct.AVIOInterruptCB = type { ptr, ptr }
%struct.ASFContext = type { i32, i32, i32, i64, i64, i32, i64, i32, i32, i32, i64, i64, i64, i64, i64, i64, i32, [128 x ptr], [128 x %struct.ASFStreamData], i32, i32, i64, i64, i8, i32, i64, i32, i32, i64, i32, i16, i64, i32, i32 }
%struct.ASFStreamData = type { [32 x i8], ptr, %struct.AVRational }
%struct.AVRational = type { i32, i32 }
%struct.ASFStream = type { i8, i32, i32, i32, i8, i16, i16, i16, %struct.ASFPacket }
%struct.ASFPacket = type { ptr, i64, i32, i32, i32, i32, i32, i8 }
%struct.AVStream = type { ptr, i32, i32, ptr, ptr, %struct.AVRational, i64, i64, i64, i32, i32, %struct.AVRational, ptr, %struct.AVRational, %struct.AVPacket, i32, %struct.AVRational, i32 }
%struct.AVPacket = type { ptr, i64, i64, ptr, i32, i32, i32, ptr, i32, i64, i64, ptr, ptr, %struct.AVRational }
%struct.FFStream = type { %struct.AVStream, ptr, i32, ptr, i32, ptr, i32, %struct.anon, i32, i32, %struct.FFFrac, ptr, ptr, i32, i32, i64, i64, i32, i32, i32, i64, i64, i64, i32, i64, i64, i64, i32, i32, [17 x i64], [17 x i8], [17 x i64], i64, i8, i8, %struct.AVRational, %struct.AVProbeData, ptr, i64, i32, i32, i32, ptr, i32, i32, i64, i64, ptr, %struct.AVRational }
%struct.anon = type { ptr, i32 }
%struct.FFFrac = type { i64, i64, i64 }
%struct.AVIndexEntry = type { i64, i64, i32, i32 }

; Function Attrs: nounwind uwtable
define internal void @reset_packet(ptr noundef %0) #0 {
  %2 = alloca ptr, align 8
  store ptr %0, ptr %2, align 8, !tbaa !91
  %3 = load ptr, ptr %2, align 8, !tbaa !91
  %4 = getelementptr inbounds nuw %struct.ASFPacket, ptr %3, i32 0, i32 6
  store i32 0, ptr %4, align 8, !tbaa !93
  %5 = load ptr, ptr %2, align 8, !tbaa !91
  %6 = getelementptr inbounds nuw %struct.ASFPacket, ptr %5, i32 0, i32 4
  store i32 0, ptr %6, align 8, !tbaa !94
  %7 = load ptr, ptr %2, align 8, !tbaa !91
  %8 = getelementptr inbounds nuw %struct.ASFPacket, ptr %7, i32 0, i32 5
  store i32 0, ptr %8, align 4, !tbaa !195
  %9 = load ptr, ptr %2, align 8, !tbaa !91
  %10 = getelementptr inbounds nuw %struct.ASFPacket, ptr %9, i32 0, i32 3
  store i32 0, ptr %10, align 4, !tbaa !99
  %11 = load ptr, ptr %2, align 8, !tbaa !91
  %12 = getelementptr inbounds nuw %struct.ASFPacket, ptr %11, i32 0, i32 1
  store i64 0, ptr %12, align 8, !tbaa !101
  %13 = load ptr, ptr %2, align 8, !tbaa !91
  %14 = getelementptr inbounds nuw %struct.ASFPacket, ptr %13, i32 0, i32 0
  %15 = load ptr, ptr %14, align 8, !tbaa !97
  call void @av_packet_unref(ptr noundef %15)
  ret void
}

; Function Attrs: nounwind uwtable
define internal void @reset_packet_state(ptr noundef %0) #0 {
  %2 = alloca ptr, align 8
  %3 = alloca ptr, align 8
  %4 = alloca i32, align 4
  %5 = alloca ptr, align 8
  store ptr %0, ptr %2, align 8, !tbaa !13
  call void @llvm.lifetime.start.p0(i64 8, ptr %3) #10
  %6 = load ptr, ptr %2, align 8, !tbaa !13
  %7 = getelementptr inbounds nuw %struct.AVFormatContext, ptr %6, i32 0, i32 3
  %8 = load ptr, ptr %7, align 8, !tbaa !15
  store ptr %8, ptr %3, align 8, !tbaa !30
  call void @llvm.lifetime.start.p0(i64 4, ptr %4) #10
  %9 = load ptr, ptr %3, align 8, !tbaa !30
  %10 = getelementptr inbounds nuw %struct.ASFContext, ptr %9, i32 0, i32 33
  store i32 0, ptr %10, align 4, !tbaa !83
  %11 = load ptr, ptr %3, align 8, !tbaa !30
  %12 = getelementptr inbounds nuw %struct.ASFContext, ptr %11, i32 0, i32 12
  store i64 0, ptr %12, align 8, !tbaa !41
  %13 = load ptr, ptr %3, align 8, !tbaa !30
  %14 = getelementptr inbounds nuw %struct.ASFContext, ptr %13, i32 0, i32 32
  store i32 0, ptr %14, align 8, !tbaa !87
  %15 = load ptr, ptr %3, align 8, !tbaa !30
  %16 = getelementptr inbounds nuw %struct.ASFContext, ptr %15, i32 0, i32 28
  store i64 0, ptr %16, align 8, !tbaa !86
  %17 = load ptr, ptr %3, align 8, !tbaa !30
  %18 = getelementptr inbounds nuw %struct.ASFContext, ptr %17, i32 0, i32 21
  store i64 0, ptr %18, align 8, !tbaa !200
  %19 = load ptr, ptr %3, align 8, !tbaa !30
  %20 = getelementptr inbounds nuw %struct.ASFContext, ptr %19, i32 0, i32 14
  %21 = load i64, ptr %20, align 8, !tbaa !51
  %22 = load ptr, ptr %3, align 8, !tbaa !30
  %23 = getelementptr inbounds nuw %struct.ASFContext, ptr %22, i32 0, i32 25
  store i64 %21, ptr %23, align 8, !tbaa !88
  %24 = load ptr, ptr %3, align 8, !tbaa !30
  %25 = getelementptr inbounds nuw %struct.ASFContext, ptr %24, i32 0, i32 26
  store i32 0, ptr %25, align 8, !tbaa !90
  %26 = load ptr, ptr %3, align 8, !tbaa !30
  %27 = getelementptr inbounds nuw %struct.ASFContext, ptr %26, i32 0, i32 27
  store i32 0, ptr %27, align 4, !tbaa !188
  %28 = load ptr, ptr %3, align 8, !tbaa !30
  %29 = getelementptr inbounds nuw %struct.ASFContext, ptr %28, i32 0, i32 23
  store i8 0, ptr %29, align 8, !tbaa !198
  %30 = load ptr, ptr %3, align 8, !tbaa !30
  %31 = getelementptr inbounds nuw %struct.ASFContext, ptr %30, i32 0, i32 30
  store i16 0, ptr %31, align 4, !tbaa !199
  %32 = load ptr, ptr %3, align 8, !tbaa !30
  %33 = getelementptr inbounds nuw %struct.ASFContext, ptr %32, i32 0, i32 31
  store i64 0, ptr %33, align 8, !tbaa !84
  %34 = load ptr, ptr %3, align 8, !tbaa !30
  %35 = getelementptr inbounds nuw %struct.ASFContext, ptr %34, i32 0, i32 29
  store i32 0, ptr %35, align 8, !tbaa !201
  %36 = load ptr, ptr %3, align 8, !tbaa !30
  %37 = getelementptr inbounds nuw %struct.ASFContext, ptr %36, i32 0, i32 9
  store i32 0, ptr %37, align 8, !tbaa !183
  %38 = load ptr, ptr %3, align 8, !tbaa !30
  %39 = getelementptr inbounds nuw %struct.ASFContext, ptr %38, i32 0, i32 22
  store i64 0, ptr %39, align 8, !tbaa !189
  store i32 0, ptr %4, align 4, !tbaa !42
  br label %40

40:                                               ; preds = %55, %1
  %41 = load i32, ptr %4, align 4, !tbaa !42
  %42 = load ptr, ptr %3, align 8, !tbaa !30
  %43 = getelementptr inbounds nuw %struct.ASFContext, ptr %42, i32 0, i32 19
  %44 = load i32, ptr %43, align 8, !tbaa !52
  %45 = icmp slt i32 %41, %44
  br i1 %45, label %46, label %58

46:                                               ; preds = %40
  call void @llvm.lifetime.start.p0(i64 8, ptr %5) #10
  %47 = load ptr, ptr %3, align 8, !tbaa !30
  %48 = getelementptr inbounds nuw %struct.ASFContext, ptr %47, i32 0, i32 17
  %49 = load i32, ptr %4, align 4, !tbaa !42
  %50 = sext i32 %49 to i64
  %51 = getelementptr inbounds [128 x ptr], ptr %48, i64 0, i64 %50
  %52 = load ptr, ptr %51, align 8, !tbaa !53
  %53 = getelementptr inbounds nuw %struct.ASFStream, ptr %52, i32 0, i32 8
  store ptr %53, ptr %5, align 8, !tbaa !91
  %54 = load ptr, ptr %5, align 8, !tbaa !91
  call void @reset_packet(ptr noundef %54)
  call void @llvm.lifetime.end.p0(i64 8, ptr %5) #10
  br label %55

55:                                               ; preds = %46
  %56 = load i32, ptr %4, align 4, !tbaa !42
  %57 = add nsw i32 %56, 1
  store i32 %57, ptr %4, align 4, !tbaa !42
  br label %40, !llvm.loop !203

58:                                               ; preds = %40
  call void @llvm.lifetime.end.p0(i64 4, ptr %4) #10
  call void @llvm.lifetime.end.p0(i64 8, ptr %3) #10
  ret void
}

; Function Attrs: alwaysinline nounwind uwtable
define internal ptr @ffstream(ptr noundef %0) #1 {
  %2 = alloca ptr, align 8
  store ptr %0, ptr %2, align 8, !tbaa !62
  %3 = load ptr, ptr %2, align 8, !tbaa !62
  ret ptr %3
}

; Function Attrs: nounwind uwtable
define internal i32 @asf_read_seek(ptr noundef %0, i32 noundef %1, i64 noundef %2, i32 noundef %3) #0 {
  %5 = alloca i32, align 4
  %6 = alloca ptr, align 8
  %7 = alloca i32, align 4
  %8 = alloca i64, align 8
  %9 = alloca i32, align 4
  %10 = alloca ptr, align 8
  %11 = alloca ptr, align 8
  %12 = alloca ptr, align 8
  %13 = alloca i32, align 4
  %14 = alloca i32, align 4
  %15 = alloca i32, align 4
  store ptr %0, ptr %6, align 8, !tbaa !13
  store i32 %1, ptr %7, align 4, !tbaa !42
  store i64 %2, ptr %8, align 8, !tbaa !47
  store i32 %3, ptr %9, align 4, !tbaa !42
  call void @llvm.lifetime.start.p0(i64 8, ptr %10) #10
  %16 = load ptr, ptr %6, align 8, !tbaa !13
  %17 = getelementptr inbounds nuw %struct.AVFormatContext, ptr %16, i32 0, i32 3
  %18 = load ptr, ptr %17, align 8, !tbaa !15
  store ptr %18, ptr %10, align 8, !tbaa !30
  call void @llvm.lifetime.start.p0(i64 8, ptr %11) #10
  %19 = load ptr, ptr %6, align 8, !tbaa !13
  %20 = getelementptr inbounds nuw %struct.AVFormatContext, ptr %19, i32 0, i32 7
  %21 = load ptr, ptr %20, align 8, !tbaa !60
  %22 = load i32, ptr %7, align 4, !tbaa !42
  %23 = sext i32 %22 to i64
  %24 = getelementptr inbounds ptr, ptr %21, i64 %23
  %25 = load ptr, ptr %24, align 8, !tbaa !62
  store ptr %25, ptr %11, align 8, !tbaa !62
  call void @llvm.lifetime.start.p0(i64 8, ptr %12) #10
  %26 = load ptr, ptr %11, align 8, !tbaa !62
  %27 = call ptr @ffstream(ptr noundef %26)
  store ptr %27, ptr %12, align 8, !tbaa !106
  call void @llvm.lifetime.start.p0(i64 4, ptr %13) #10
  call void @llvm.lifetime.start.p0(i64 4, ptr %14) #10
  %28 = load ptr, ptr %12, align 8, !tbaa !106
  %29 = getelementptr inbounds nuw %struct.FFStream, ptr %28, i32 0, i32 13
  %30 = load i32, ptr %29, align 8, !tbaa !108
  %31 = icmp ne i32 %30, 0
  br i1 %31, label %32, label %64

32:                                               ; preds = %4
  %33 = load ptr, ptr %10, align 8, !tbaa !30
  %34 = getelementptr inbounds nuw %struct.ASFContext, ptr %33, i32 0, i32 1
  %35 = load i32, ptr %34, align 4, !tbaa !39
  %36 = icmp ne i32 %35, 0
  br i1 %36, label %37, label %64

37:                                               ; preds = %32
  %38 = load ptr, ptr %11, align 8, !tbaa !62
  %39 = load i64, ptr %8, align 8, !tbaa !47
  %40 = load i32, ptr %9, align 4, !tbaa !42
  %41 = call i32 @av_index_search_timestamp(ptr noundef %38, i64 noundef %39, i32 noundef %40)
  store i32 %41, ptr %13, align 4, !tbaa !42
  %42 = load i32, ptr %13, align 4, !tbaa !42
  %43 = icmp slt i32 %42, 0
  br i1 %43, label %50, label %44

44:                                               ; preds = %37
  %45 = load i32, ptr %13, align 4, !tbaa !42
  %46 = load ptr, ptr %12, align 8, !tbaa !106
  %47 = getelementptr inbounds nuw %struct.FFStream, ptr %46, i32 0, i32 13
  %48 = load i32, ptr %47, align 8, !tbaa !108
  %49 = icmp sge i32 %45, %48
  br i1 %49, label %50, label %51

50:                                               ; preds = %44, %37
  store i32 -1094995529, ptr %5, align 4
  store i32 1, ptr %15, align 4
  br label %76

51:                                               ; preds = %44
  %52 = load ptr, ptr %6, align 8, !tbaa !13
  %53 = getelementptr inbounds nuw %struct.AVFormatContext, ptr %52, i32 0, i32 4
  %54 = load ptr, ptr %53, align 8, !tbaa !32
  %55 = load ptr, ptr %12, align 8, !tbaa !106
  %56 = getelementptr inbounds nuw %struct.FFStream, ptr %55, i32 0, i32 12
  %57 = load ptr, ptr %56, align 8, !tbaa !119
  %58 = load i32, ptr %13, align 4, !tbaa !42
  %59 = sext i32 %58 to i64
  %60 = getelementptr inbounds %struct.AVIndexEntry, ptr %57, i64 %59
  %61 = getelementptr inbounds nuw %struct.AVIndexEntry, ptr %60, i32 0, i32 0
  %62 = load i64, ptr %61, align 8, !tbaa !120
  %63 = call i64 @avio_seek(ptr noundef %54, i64 noundef %62, i32 noundef 0)
  br label %74

64:                                               ; preds = %32, %4
  %65 = load ptr, ptr %6, align 8, !tbaa !13
  %66 = load i32, ptr %7, align 4, !tbaa !42
  %67 = load i64, ptr %8, align 8, !tbaa !47
  %68 = load i32, ptr %9, align 4, !tbaa !42
  %69 = call i32 @ff_seek_frame_binary(ptr noundef %65, i32 noundef %66, i64 noundef %67, i32 noundef %68)
  store i32 %69, ptr %14, align 4, !tbaa !42
  %70 = icmp slt i32 %69, 0
  br i1 %70, label %71, label %73

71:                                               ; preds = %64
  %72 = load i32, ptr %14, align 4, !tbaa !42
  store i32 %72, ptr %5, align 4
  store i32 1, ptr %15, align 4
  br label %76

73:                                               ; preds = %64
  br label %74

74:                                               ; preds = %73, %51
  %75 = load ptr, ptr %6, align 8, !tbaa !13
  call void @reset_packet_state(ptr noundef %75)
  store i32 0, ptr %5, align 4
  store i32 1, ptr %15, align 4
  br label %76

76:                                               ; preds = %74, %71, %50
  call void @llvm.lifetime.end.p0(i64 4, ptr %14) #10
  call void @llvm.lifetime.end.p0(i64 4, ptr %13) #10
  call void @llvm.lifetime.end.p0(i64 8, ptr %12) #10
  call void @llvm.lifetime.end.p0(i64 8, ptr %11) #10
  call void @llvm.lifetime.end.p0(i64 8, ptr %10) #10
  %77 = load i32, ptr %5, align 4
  ret i32 %77
}