; Function Attrs: nounwind uwtable
define internal range(i32 -2147483648, 1) i32 @asf_read_seek(ptr noundef %0, i32 noundef %1, i64 noundef %2, i32 noundef %3) #1 {
  %5 = getelementptr inbounds nuw i8, ptr %0, i64 24
  %6 = getelementptr inbounds nuw i8, ptr %0, i64 48
  %7 = load ptr, ptr %6, align 8, !tbaa !51
  %8 = sext i32 %1 to i64
  %9 = getelementptr inbounds ptr, ptr %7, i64 %8
  %10 = load ptr, ptr %9, align 8, !tbaa !53
  %11 = getelementptr inbounds nuw i8, ptr %10, i64 328
  %12 = load i32, ptr %11, align 8, !tbaa !113
  %.not = icmp eq i32 %12, 0
  br i1 %.not, label %31, label %13

13:                                               ; preds = %4
  %14 = load ptr, ptr %5, align 8, !tbaa !11
  %15 = getelementptr inbounds nuw i8, ptr %14, i64 4
  %16 = load i32, ptr %15, align 4, !tbaa !30
  %.not23 = icmp eq i32 %16, 0
  br i1 %.not23, label %31, label %17

17:                                               ; preds = %13
  %18 = tail call i32 @av_index_search_timestamp(ptr noundef nonnull %10, i64 noundef %2, i32 noundef %3) #12
  %19 = icmp slt i32 %18, 0
  br i1 %19, label %reset_packet_state.exit, label %20

20:                                               ; preds = %17
  %21 = load i32, ptr %11, align 8, !tbaa !113
  %.not24 = icmp slt i32 %18, %21
  br i1 %.not24, label %22, label %reset_packet_state.exit

22:                                               ; preds = %20
  %23 = getelementptr inbounds nuw i8, ptr %0, i64 32
  %24 = load ptr, ptr %23, align 8, !tbaa !26
  %25 = getelementptr inbounds nuw i8, ptr %10, i64 320
  %26 = load ptr, ptr %25, align 8, !tbaa !125
  %27 = zext nneg i32 %18 to i64
  %28 = getelementptr inbounds nuw %struct.AVIndexEntry, ptr %26, i64 %27
  %29 = load i64, ptr %28, align 8, !tbaa !126
  %30 = tail call i64 @avio_seek(ptr noundef %24, i64 noundef %29, i32 noundef 0) #12
  br label %34

31:                                               ; preds = %13, %4
  %32 = tail call i32 @ff_seek_frame_binary(ptr noundef nonnull %0, i32 noundef %1, i64 noundef %2, i32 noundef %3) #12
  %33 = icmp slt i32 %32, 0
  br i1 %33, label %reset_packet_state.exit, label %34

34:                                               ; preds = %31, %22
  %.val = load ptr, ptr %5, align 8, !tbaa !11
  %35 = getelementptr inbounds nuw i8, ptr %.val, i64 7364
  store i32 0, ptr %35, align 4, !tbaa !77
  %36 = getelementptr inbounds nuw i8, ptr %.val, i64 80
  store i64 0, ptr %36, align 8, !tbaa !32
  %37 = getelementptr inbounds nuw i8, ptr %.val, i64 7360
  store i32 0, ptr %37, align 8, !tbaa !104
  %38 = getelementptr inbounds nuw i8, ptr %.val, i64 7336
  store i64 0, ptr %38, align 8, !tbaa !84
  %39 = getelementptr inbounds nuw i8, ptr %.val, i64 7296
  store i64 0, ptr %39, align 8, !tbaa !128
  %40 = getelementptr inbounds nuw i8, ptr %.val, i64 96
  %41 = load i64, ptr %40, align 8, !tbaa !43
  %42 = getelementptr inbounds nuw i8, ptr %.val, i64 7320
  store i64 %41, ptr %42, align 8, !tbaa !78
  %43 = getelementptr inbounds nuw i8, ptr %.val, i64 7328
  store i32 0, ptr %43, align 8, !tbaa !81
  %44 = getelementptr inbounds nuw i8, ptr %.val, i64 7332
  store i32 0, ptr %44, align 4, !tbaa !90
  %45 = getelementptr inbounds nuw i8, ptr %.val, i64 7312
  store i8 0, ptr %45, align 8, !tbaa !129
  %46 = getelementptr inbounds nuw i8, ptr %.val, i64 7348
  store i16 0, ptr %46, align 4, !tbaa !130
  %47 = getelementptr inbounds nuw i8, ptr %.val, i64 7352
  store i64 0, ptr %47, align 8, !tbaa !83
  %48 = getelementptr inbounds nuw i8, ptr %.val, i64 7344
  store i32 0, ptr %48, align 8, !tbaa !131
  %49 = getelementptr inbounds nuw i8, ptr %.val, i64 56
  store i32 0, ptr %49, align 8, !tbaa !79
  %50 = getelementptr inbounds nuw i8, ptr %.val, i64 7304
  store i64 0, ptr %50, align 8, !tbaa !95
  %51 = getelementptr inbounds nuw i8, ptr %.val, i64 7288
  %52 = load i32, ptr %51, align 8, !tbaa !44
  %53 = icmp sgt i32 %52, 0
  br i1 %53, label %.lr.ph.i, label %reset_packet_state.exit

.lr.ph.i:                                         ; preds = %34
  %54 = getelementptr inbounds nuw i8, ptr %.val, i64 120
  br label %55

55:                                               ; preds = %55, %.lr.ph.i
  %indvars.iv.i = phi i64 [ 0, %.lr.ph.i ], [ %indvars.iv.next.i, %55 ]
  %56 = getelementptr inbounds nuw [128 x ptr], ptr %54, i64 0, i64 %indvars.iv.i
  %57 = load ptr, ptr %56, align 8, !tbaa !45
  %58 = getelementptr inbounds nuw i8, ptr %57, i64 24
  %59 = getelementptr inbounds nuw i8, ptr %57, i64 44
  %60 = getelementptr inbounds nuw i8, ptr %57, i64 32
  store i64 0, ptr %60, align 8, !tbaa !93
  tail call void @llvm.memset.p0.i64(ptr noundef nonnull align 4 dereferenceable(16) %59, i8 0, i64 16, i1 false)
  %61 = load ptr, ptr %58, align 8, !tbaa !94
  tail call void @av_packet_unref(ptr noundef %61) #12
  %indvars.iv.next.i = add nuw nsw i64 %indvars.iv.i, 1
  %62 = load i32, ptr %51, align 8, !tbaa !44
  %63 = sext i32 %62 to i64
  %64 = icmp slt i64 %indvars.iv.next.i, %63
  br i1 %64, label %55, label %reset_packet_state.exit, !llvm.loop !132

reset_packet_state.exit:                          ; preds = %55, %34, %31, %17, %20
  %.0 = phi i32 [ -1094995529, %20 ], [ -1094995529, %17 ], [ %32, %31 ], [ 0, %34 ], [ 0, %55 ]
  ret i32 %.0
}